#include <math.h>
#include <stdio.h>
#include <stdlib.h>
#include <string.h>


int main(int argc, const char * argv[])
{
    int n;
    scanf("%d", &n);
    int od[n], i;
    for (i=0; i<n; i++) {
        scanf("%d", &(od[i]));
    }
    int abod[n], j, k;
    for (j=0; j<n; j++) {
        abod[j]=od[n-j-1];
    }
    for (k=0; k<n-1; k++) {
        printf("%d ", abod[k]);
    }
    printf("%d", abod[n-1]);
    return 0;
}
