; ModuleID = '47/4249.c'
source_filename = "47/4249.c"
target datalayout = "e-m:e-p270:32:32-p271:32:32-p272:64:64-i64:64-f80:128-n8:16:32:64-S128"
target triple = "x86_64-pc-linux-gnu"

@.str = private unnamed_addr constant [3 x i8] c"%d\00", align 1
@.str.1 = private unnamed_addr constant [4 x i8] c"%d \00", align 1

; Function Attrs: noinline nounwind uwtable
define dso_local i32 @main(i32 %0, i8** %1) #0 {
  %3 = alloca i32, align 4
  %4 = alloca i32, align 4
  %5 = alloca i8**, align 8
  %6 = alloca i32, align 4
  %7 = alloca i8*, align 8
  %8 = alloca i64, align 8
  %9 = alloca i32, align 4
  %10 = alloca i64, align 8
  %11 = alloca i32, align 4
  %12 = alloca i32, align 4
  store i32 0, i32* %3, align 4
  store i32 %0, i32* %4, align 4
  store i8** %1, i8*** %5, align 8
  %13 = call i32 (i8*, ...) @__isoc99_scanf(i8* getelementptr inbounds ([3 x i8], [3 x i8]* @.str, i64 0, i64 0), i32* %6)
  %14 = load i32, i32* %6, align 4
  %15 = zext i32 %14 to i64
  %16 = call i8* @llvm.stacksave()
  store i8* %16, i8** %7, align 8
  %17 = alloca i32, i64 %15, align 16
  store i64 %15, i64* %8, align 8
  store i32 0, i32* %9, align 4
  br label %18

18:                                               ; preds = %27, %2
  %19 = load i32, i32* %9, align 4
  %20 = load i32, i32* %6, align 4
  %21 = icmp slt i32 %19, %20
  br i1 %21, label %22, label %30

22:                                               ; preds = %18
  %23 = load i32, i32* %9, align 4
  %24 = sext i32 %23 to i64
  %25 = getelementptr inbounds i32, i32* %17, i64 %24
  %26 = call i32 (i8*, ...) @__isoc99_scanf(i8* getelementptr inbounds ([3 x i8], [3 x i8]* @.str, i64 0, i64 0), i32* %25)
  br label %27

27:                                               ; preds = %22
  %28 = load i32, i32* %9, align 4
  %29 = add nsw i32 %28, 1
  store i32 %29, i32* %9, align 4
  br label %18

30:                                               ; preds = %18
  %31 = load i32, i32* %6, align 4
  %32 = zext i32 %31 to i64
  %33 = alloca i32, i64 %32, align 16
  store i64 %32, i64* %10, align 8
  store i32 0, i32* %11, align 4
  br label %34

34:                                               ; preds = %49, %30
  %35 = load i32, i32* %11, align 4
  %36 = load i32, i32* %6, align 4
  %37 = icmp slt i32 %35, %36
  br i1 %37, label %38, label %52

38:                                               ; preds = %34
  %39 = load i32, i32* %6, align 4
  %40 = load i32, i32* %11, align 4
  %41 = sub nsw i32 %39, %40
  %42 = sub nsw i32 %41, 1
  %43 = sext i32 %42 to i64
  %44 = getelementptr inbounds i32, i32* %17, i64 %43
  %45 = load i32, i32* %44, align 4
  %46 = load i32, i32* %11, align 4
  %47 = sext i32 %46 to i64
  %48 = getelementptr inbounds i32, i32* %33, i64 %47
  store i32 %45, i32* %48, align 4
  br label %49

49:                                               ; preds = %38
  %50 = load i32, i32* %11, align 4
  %51 = add nsw i32 %50, 1
  store i32 %51, i32* %11, align 4
  br label %34

52:                                               ; preds = %34
  store i32 0, i32* %12, align 4
  br label %53

53:                                               ; preds = %64, %52
  %54 = load i32, i32* %12, align 4
  %55 = load i32, i32* %6, align 4
  %56 = sub nsw i32 %55, 1
  %57 = icmp slt i32 %54, %56
  br i1 %57, label %58, label %67

58:                                               ; preds = %53
  %59 = load i32, i32* %12, align 4
  %60 = sext i32 %59 to i64
  %61 = getelementptr inbounds i32, i32* %33, i64 %60
  %62 = load i32, i32* %61, align 4
  %63 = call i32 (i8*, ...) @printf(i8* getelementptr inbounds ([4 x i8], [4 x i8]* @.str.1, i64 0, i64 0), i32 %62)
  br label %64

64:                                               ; preds = %58
  %65 = load i32, i32* %12, align 4
  %66 = add nsw i32 %65, 1
  store i32 %66, i32* %12, align 4
  br label %53

67:                                               ; preds = %53
  %68 = load i32, i32* %6, align 4
  %69 = sub nsw i32 %68, 1
  %70 = sext i32 %69 to i64
  %71 = getelementptr inbounds i32, i32* %33, i64 %70
  %72 = load i32, i32* %71, align 4
  %73 = call i32 (i8*, ...) @printf(i8* getelementptr inbounds ([3 x i8], [3 x i8]* @.str, i64 0, i64 0), i32 %72)
  store i32 0, i32* %3, align 4
  %74 = load i8*, i8** %7, align 8
  call void @llvm.stackrestore(i8* %74)
  %75 = load i32, i32* %3, align 4
  ret i32 %75
}

declare dso_local i32 @__isoc99_scanf(i8*, ...) #1

; Function Attrs: nounwind
declare i8* @llvm.stacksave() #2

declare dso_local i32 @printf(i8*, ...) #1

; Function Attrs: nounwind
declare void @llvm.stackrestore(i8*) #2


!llvm.module.flags = !{!0}
!llvm.ident = !{!1}

!0 = !{i32 1, !"wchar_size", i32 4}
!1 = !{!"clang version 10.0.0-4ubuntu1 "}
